target datalayout = "e-m:e-p270:32:32-p271:32:32-p272:64:64-i64:64-i128:128-f80:128-n8:16:32:64-S128"
target triple = "x86_64-pc-linux-gnu"

%struct.ui_st = type { ptr, ptr, ptr, %struct.crypto_ex_data_st, i32, ptr }
%struct.crypto_ex_data_st = type { ptr, ptr }
%struct.ui_method_st = type { ptr, ptr, ptr, ptr, ptr, ptr, ptr, ptr, ptr, %struct.crypto_ex_data_st }

@.str = private unnamed_addr constant [30 x i8] c"../openssl/crypto/ui/ui_lib.c\00", align 1
@.str.1 = private unnamed_addr constant [11 x i8] c"processing\00", align 1
@.str.2 = private unnamed_addr constant [16 x i8] c"opening session\00", align 1
@.str.3 = private unnamed_addr constant [16 x i8] c"writing strings\00", align 1
@.str.4 = private unnamed_addr constant [9 x i8] c"flushing\00", align 1
@.str.5 = private unnamed_addr constant [16 x i8] c"reading strings\00", align 1
@.str.6 = private unnamed_addr constant [16 x i8] c"closing session\00", align 1
@__func__.UI_process = private unnamed_addr constant [11 x i8] c"UI_process\00", align 1
@.str.7 = private unnamed_addr constant [9 x i8] c"while %s\00", align 1

; Function Attrs: inlinehint nounwind uwtable
define internal ptr @ossl_check_const_UI_STRING_sk_type(ptr noundef %0) #3 {
  %2 = alloca ptr, align 8
  store ptr %0, ptr %2, align 8, !tbaa !24
  %3 = load ptr, ptr %2, align 8, !tbaa !24
  ret ptr %3
}

; Function Attrs: nounwind uwtable
define i32 @UI_process(ptr noundef %0) #0 {
  %2 = alloca ptr, align 8
  %3 = alloca i32, align 4
  %4 = alloca i32, align 4
  %5 = alloca ptr, align 8
  store ptr %0, ptr %2, align 8, !tbaa !8
  call void @llvm.lifetime.start.p0(i64 4, ptr %3) #7
  call void @llvm.lifetime.start.p0(i64 4, ptr %4) #7
  store i32 0, ptr %4, align 4, !tbaa !35
  call void @llvm.lifetime.start.p0(i64 8, ptr %5) #7
  store ptr @.str.1, ptr %5, align 8, !tbaa !34
  %6 = load ptr, ptr %2, align 8, !tbaa !8
  %7 = getelementptr inbounds nuw %struct.ui_st, ptr %6, i32 0, i32 0
  %8 = load ptr, ptr %7, align 8, !tbaa !17
  %9 = getelementptr inbounds nuw %struct.ui_method_st, ptr %8, i32 0, i32 1
  %10 = load ptr, ptr %9, align 8, !tbaa !42
  %11 = icmp ne ptr %10, null
  br i1 %11, label %12, label %22

12:                                               ; preds = %1
  %13 = load ptr, ptr %2, align 8, !tbaa !8
  %14 = getelementptr inbounds nuw %struct.ui_st, ptr %13, i32 0, i32 0
  %15 = load ptr, ptr %14, align 8, !tbaa !17
  %16 = getelementptr inbounds nuw %struct.ui_method_st, ptr %15, i32 0, i32 1
  %17 = load ptr, ptr %16, align 8, !tbaa !42
  %18 = load ptr, ptr %2, align 8, !tbaa !8
  %19 = call i32 %17(ptr noundef %18)
  %20 = icmp sle i32 %19, 0
  br i1 %20, label %21, label %22

21:                                               ; preds = %12
  store ptr @.str.2, ptr %5, align 8, !tbaa !34
  store i32 -1, ptr %4, align 4, !tbaa !35
  br label %137

22:                                               ; preds = %12, %1
  %23 = load ptr, ptr %2, align 8, !tbaa !8
  %24 = getelementptr inbounds nuw %struct.ui_st, ptr %23, i32 0, i32 4
  %25 = load i32, ptr %24, align 8, !tbaa !18
  %26 = and i32 %25, 256
  %27 = icmp ne i32 %26, 0
  br i1 %27, label %28, label %30

28:                                               ; preds = %22
  %29 = load ptr, ptr %2, align 8, !tbaa !8
  call void @ERR_print_errors_cb(ptr noundef @print_error, ptr noundef %29)
  br label %30

30:                                               ; preds = %28, %22
  store i32 0, ptr %3, align 4, !tbaa !35
  br label %31

31:                                               ; preds = %63, %30
  %32 = load i32, ptr %3, align 4, !tbaa !35
  %33 = load ptr, ptr %2, align 8, !tbaa !8
  %34 = getelementptr inbounds nuw %struct.ui_st, ptr %33, i32 0, i32 1
  %35 = load ptr, ptr %34, align 8, !tbaa !23
  %36 = call ptr @ossl_check_const_UI_STRING_sk_type(ptr noundef %35)
  %37 = call i32 @OPENSSL_sk_num(ptr noundef %36)
  %38 = icmp slt i32 %32, %37
  br i1 %38, label %39, label %66

39:                                               ; preds = %31
  %40 = load ptr, ptr %2, align 8, !tbaa !8
  %41 = getelementptr inbounds nuw %struct.ui_st, ptr %40, i32 0, i32 0
  %42 = load ptr, ptr %41, align 8, !tbaa !17
  %43 = getelementptr inbounds nuw %struct.ui_method_st, ptr %42, i32 0, i32 2
  %44 = load ptr, ptr %43, align 8, !tbaa !43
  %45 = icmp ne ptr %44, null
  br i1 %45, label %46, label %62

46:                                               ; preds = %39
  %47 = load ptr, ptr %2, align 8, !tbaa !8
  %48 = getelementptr inbounds nuw %struct.ui_st, ptr %47, i32 0, i32 0
  %49 = load ptr, ptr %48, align 8, !tbaa !17
  %50 = getelementptr inbounds nuw %struct.ui_method_st, ptr %49, i32 0, i32 2
  %51 = load ptr, ptr %50, align 8, !tbaa !43
  %52 = load ptr, ptr %2, align 8, !tbaa !8
  %53 = load ptr, ptr %2, align 8, !tbaa !8
  %54 = getelementptr inbounds nuw %struct.ui_st, ptr %53, i32 0, i32 1
  %55 = load ptr, ptr %54, align 8, !tbaa !23
  %56 = call ptr @ossl_check_const_UI_STRING_sk_type(ptr noundef %55)
  %57 = load i32, ptr %3, align 4, !tbaa !35
  %58 = call ptr @OPENSSL_sk_value(ptr noundef %56, i32 noundef %57)
  %59 = call i32 %51(ptr noundef %52, ptr noundef %58)
  %60 = icmp sle i32 %59, 0
  br i1 %60, label %61, label %62

61:                                               ; preds = %46
  store ptr @.str.3, ptr %5, align 8, !tbaa !34
  store i32 -1, ptr %4, align 4, !tbaa !35
  br label %137

62:                                               ; preds = %46, %39
  br label %63

63:                                               ; preds = %62
  %64 = load i32, ptr %3, align 4, !tbaa !35
  %65 = add nsw i32 %64, 1
  store i32 %65, ptr %3, align 4, !tbaa !35
  br label %31, !llvm.loop !44

66:                                               ; preds = %31
  %67 = load ptr, ptr %2, align 8, !tbaa !8
  %68 = getelementptr inbounds nuw %struct.ui_st, ptr %67, i32 0, i32 0
  %69 = load ptr, ptr %68, align 8, !tbaa !17
  %70 = getelementptr inbounds nuw %struct.ui_method_st, ptr %69, i32 0, i32 3
  %71 = load ptr, ptr %70, align 8, !tbaa !45
  %72 = icmp ne ptr %71, null
  br i1 %72, label %73, label %89

73:                                               ; preds = %66
  %74 = load ptr, ptr %2, align 8, !tbaa !8
  %75 = getelementptr inbounds nuw %struct.ui_st, ptr %74, i32 0, i32 0
  %76 = load ptr, ptr %75, align 8, !tbaa !17
  %77 = getelementptr inbounds nuw %struct.ui_method_st, ptr %76, i32 0, i32 3
  %78 = load ptr, ptr %77, align 8, !tbaa !45
  %79 = load ptr, ptr %2, align 8, !tbaa !8
  %80 = call i32 %78(ptr noundef %79)
  switch i32 %80, label %87 [
    i32 -1, label %81
    i32 0, label %86
  ]

81:                                               ; preds = %73
  %82 = load ptr, ptr %2, align 8, !tbaa !8
  %83 = getelementptr inbounds nuw %struct.ui_st, ptr %82, i32 0, i32 4
  %84 = load i32, ptr %83, align 8, !tbaa !18
  %85 = and i32 %84, -2
  store i32 %85, ptr %83, align 8, !tbaa !18
  store i32 -2, ptr %4, align 4, !tbaa !35
  br label %137

86:                                               ; preds = %73
  store ptr @.str.4, ptr %5, align 8, !tbaa !34
  store i32 -1, ptr %4, align 4, !tbaa !35
  br label %137

87:                                               ; preds = %73
  store i32 0, ptr %4, align 4, !tbaa !35
  br label %88

88:                                               ; preds = %87
  br label %89

89:                                               ; preds = %88, %66
  store i32 0, ptr %3, align 4, !tbaa !35
  br label %90

90:                                               ; preds = %133, %89
  %91 = load i32, ptr %3, align 4, !tbaa !35
  %92 = load ptr, ptr %2, align 8, !tbaa !8
  %93 = getelementptr inbounds nuw %struct.ui_st, ptr %92, i32 0, i32 1
  %94 = load ptr, ptr %93, align 8, !tbaa !23
  %95 = call ptr @ossl_check_const_UI_STRING_sk_type(ptr noundef %94)
  %96 = call i32 @OPENSSL_sk_num(ptr noundef %95)
  %97 = icmp slt i32 %91, %96
  br i1 %97, label %98, label %136

98:                                               ; preds = %90
  %99 = load ptr, ptr %2, align 8, !tbaa !8
  %100 = getelementptr inbounds nuw %struct.ui_st, ptr %99, i32 0, i32 0
  %101 = load ptr, ptr %100, align 8, !tbaa !17
  %102 = getelementptr inbounds nuw %struct.ui_method_st, ptr %101, i32 0, i32 4
  %103 = load ptr, ptr %102, align 8, !tbaa !46
  %104 = icmp ne ptr %103, null
  br i1 %104, label %105, label %127

105:                                              ; preds = %98
  %106 = load ptr, ptr %2, align 8, !tbaa !8
  %107 = getelementptr inbounds nuw %struct.ui_st, ptr %106, i32 0, i32 0
  %108 = load ptr, ptr %107, align 8, !tbaa !17
  %109 = getelementptr inbounds nuw %struct.ui_method_st, ptr %108, i32 0, i32 4
  %110 = load ptr, ptr %109, align 8, !tbaa !46
  %111 = load ptr, ptr %2, align 8, !tbaa !8
  %112 = load ptr, ptr %2, align 8, !tbaa !8
  %113 = getelementptr inbounds nuw %struct.ui_st, ptr %112, i32 0, i32 1
  %114 = load ptr, ptr %113, align 8, !tbaa !23
  %115 = call ptr @ossl_check_const_UI_STRING_sk_type(ptr noundef %114)
  %116 = load i32, ptr %3, align 4, !tbaa !35
  %117 = call ptr @OPENSSL_sk_value(ptr noundef %115, i32 noundef %116)
  %118 = call i32 %110(ptr noundef %111, ptr noundef %117)
  switch i32 %118, label %125 [
    i32 -1, label %119
    i32 0, label %124
  ]

119:                                              ; preds = %105
  %120 = load ptr, ptr %2, align 8, !tbaa !8
  %121 = getelementptr inbounds nuw %struct.ui_st, ptr %120, i32 0, i32 4
  %122 = load i32, ptr %121, align 8, !tbaa !18
  %123 = and i32 %122, -2
  store i32 %123, ptr %121, align 8, !tbaa !18
  store i32 -2, ptr %4, align 4, !tbaa !35
  br label %137

124:                                              ; preds = %105
  store ptr @.str.5, ptr %5, align 8, !tbaa !34
  store i32 -1, ptr %4, align 4, !tbaa !35
  br label %137

125:                                              ; preds = %105
  store i32 0, ptr %4, align 4, !tbaa !35
  br label %126

126:                                              ; preds = %125
  br label %132

127:                                              ; preds = %98
  %128 = load ptr, ptr %2, align 8, !tbaa !8
  %129 = getelementptr inbounds nuw %struct.ui_st, ptr %128, i32 0, i32 4
  %130 = load i32, ptr %129, align 8, !tbaa !18
  %131 = and i32 %130, -2
  store i32 %131, ptr %129, align 8, !tbaa !18
  store i32 -2, ptr %4, align 4, !tbaa !35
  br label %137

132:                                              ; preds = %126
  br label %133

133:                                              ; preds = %132
  %134 = load i32, ptr %3, align 4, !tbaa !35
  %135 = add nsw i32 %134, 1
  store i32 %135, ptr %3, align 4, !tbaa !35
  br label %90, !llvm.loop !47

136:                                              ; preds = %90
  store ptr null, ptr %5, align 8, !tbaa !34
  br label %137

137:                                              ; preds = %136, %127, %124, %119, %86, %81, %61, %21
  %138 = load ptr, ptr %2, align 8, !tbaa !8
  %139 = getelementptr inbounds nuw %struct.ui_st, ptr %138, i32 0, i32 0
  %140 = load ptr, ptr %139, align 8, !tbaa !17
  %141 = getelementptr inbounds nuw %struct.ui_method_st, ptr %140, i32 0, i32 5
  %142 = load ptr, ptr %141, align 8, !tbaa !48
  %143 = icmp ne ptr %142, null
  br i1 %143, label %144, label %158

144:                                              ; preds = %137
  %145 = load ptr, ptr %2, align 8, !tbaa !8
  %146 = getelementptr inbounds nuw %struct.ui_st, ptr %145, i32 0, i32 0
  %147 = load ptr, ptr %146, align 8, !tbaa !17
  %148 = getelementptr inbounds nuw %struct.ui_method_st, ptr %147, i32 0, i32 5
  %149 = load ptr, ptr %148, align 8, !tbaa !48
  %150 = load ptr, ptr %2, align 8, !tbaa !8
  %151 = call i32 %149(ptr noundef %150)
  %152 = icmp sle i32 %151, 0
  br i1 %152, label %153, label %158

153:                                              ; preds = %144
  %154 = load ptr, ptr %5, align 8, !tbaa !34
  %155 = icmp eq ptr %154, null
  br i1 %155, label %156, label %157

156:                                              ; preds = %153
  store ptr @.str.6, ptr %5, align 8, !tbaa !34
  br label %157

157:                                              ; preds = %156, %153
  store i32 -1, ptr %4, align 4, !tbaa !35
  br label %158

158:                                              ; preds = %157, %144, %137
  %159 = load i32, ptr %4, align 4, !tbaa !35
  %160 = icmp eq i32 %159, -1
  br i1 %160, label %161, label %163

161:                                              ; preds = %158
  call void @ERR_new()
  call void @ERR_set_debug(ptr noundef @.str, i32 noundef 528, ptr noundef @__func__.UI_process)
  %162 = load ptr, ptr %5, align 8, !tbaa !34
  call void (i32, i32, ptr, ...) @ERR_set_error(i32 noundef 40, i32 noundef 107, ptr noundef @.str.7, ptr noundef %162)
  br label %163

163:                                              ; preds = %161, %158
  %164 = load i32, ptr %4, align 4, !tbaa !35
  call void @llvm.lifetime.end.p0(i64 8, ptr %5) #7
  call void @llvm.lifetime.end.p0(i64 4, ptr %4) #7
  call void @llvm.lifetime.end.p0(i64 4, ptr %3) #7
  ret i32 %164
}