; Function Attrs: nounwind uwtable
define range(i32 -2, 1) i32 @UI_process(ptr noundef %0) local_unnamed_addr #0 {
  %2 = load ptr, ptr %0, align 8, !tbaa !14
  %3 = getelementptr inbounds nuw i8, ptr %2, i64 8
  %4 = load ptr, ptr %3, align 8, !tbaa !33
  %.not = icmp eq ptr %4, null
  br i1 %.not, label %8, label %5

5:                                                ; preds = %1
  %6 = tail call i32 %4(ptr noundef nonnull %0) #8
  %7 = icmp slt i32 %6, 1
  br i1 %7, label %.loopexit, label %8

8:                                                ; preds = %5, %1
  %9 = getelementptr inbounds nuw i8, ptr %0, i64 40
  %10 = load i32, ptr %9, align 8, !tbaa !15
  %11 = and i32 %10, 256
  %.not42 = icmp eq i32 %11, 0
  br i1 %.not42, label %13, label %12

12:                                               ; preds = %8
  tail call void @ERR_print_errors_cb(ptr noundef nonnull @print_error, ptr noundef nonnull %0) #8
  br label %13

13:                                               ; preds = %12, %8
  %14 = getelementptr inbounds nuw i8, ptr %0, i64 8
  %15 = load ptr, ptr %14, align 8, !tbaa !20
  %16 = tail call i32 @OPENSSL_sk_num(ptr noundef %15) #8
  %17 = icmp sgt i32 %16, 0
  br i1 %17, label %.lr.ph, label %._crit_edge

.lr.ph:                                           ; preds = %13, %26
  %.03555 = phi i32 [ %27, %26 ], [ 0, %13 ]
  %18 = load ptr, ptr %0, align 8, !tbaa !14
  %19 = getelementptr inbounds nuw i8, ptr %18, i64 16
  %20 = load ptr, ptr %19, align 8, !tbaa !34
  %.not45 = icmp eq ptr %20, null
  br i1 %.not45, label %26, label %21

21:                                               ; preds = %.lr.ph
  %22 = load ptr, ptr %14, align 8, !tbaa !20
  %23 = tail call ptr @OPENSSL_sk_value(ptr noundef %22, i32 noundef %.03555) #8
  %24 = tail call i32 %20(ptr noundef nonnull %0, ptr noundef %23) #8
  %25 = icmp slt i32 %24, 1
  br i1 %25, label %.loopexit, label %26

26:                                               ; preds = %.lr.ph, %21
  %27 = add nuw nsw i32 %.03555, 1
  %28 = load ptr, ptr %14, align 8, !tbaa !20
  %29 = tail call i32 @OPENSSL_sk_num(ptr noundef %28) #8
  %30 = icmp slt i32 %27, %29
  br i1 %30, label %.lr.ph, label %._crit_edge, !llvm.loop !35

._crit_edge:                                      ; preds = %26, %13
  %31 = load ptr, ptr %0, align 8, !tbaa !14
  %32 = getelementptr inbounds nuw i8, ptr %31, i64 24
  %33 = load ptr, ptr %32, align 8, !tbaa !36
  %.not43 = icmp eq ptr %33, null
  br i1 %.not43, label %36, label %34

34:                                               ; preds = %._crit_edge
  %35 = tail call i32 %33(ptr noundef nonnull %0) #8
  switch i32 %35, label %36 [
    i32 -1, label %.loopexit.sink.split
    i32 0, label %.loopexit
  ]

36:                                               ; preds = %34, %._crit_edge
  %37 = load ptr, ptr %14, align 8, !tbaa !20
  %38 = tail call i32 @OPENSSL_sk_num(ptr noundef %37) #8
  %39 = icmp sgt i32 %38, 0
  br i1 %39, label %.lr.ph58, label %.loopexit

.lr.ph58:                                         ; preds = %36, %47
  %.13656 = phi i32 [ %48, %47 ], [ 0, %36 ]
  %40 = load ptr, ptr %0, align 8, !tbaa !14
  %41 = getelementptr inbounds nuw i8, ptr %40, i64 32
  %42 = load ptr, ptr %41, align 8, !tbaa !37
  %.not44 = icmp eq ptr %42, null
  br i1 %.not44, label %.loopexit.sink.split, label %43

43:                                               ; preds = %.lr.ph58
  %44 = load ptr, ptr %14, align 8, !tbaa !20
  %45 = tail call ptr @OPENSSL_sk_value(ptr noundef %44, i32 noundef %.13656) #8
  %46 = tail call i32 %42(ptr noundef nonnull %0, ptr noundef %45) #8
  switch i32 %46, label %47 [
    i32 -1, label %.loopexit.sink.split
    i32 0, label %.loopexit
  ]

47:                                               ; preds = %43
  %48 = add nuw nsw i32 %.13656, 1
  %49 = load ptr, ptr %14, align 8, !tbaa !20
  %50 = tail call i32 @OPENSSL_sk_num(ptr noundef %49) #8
  %51 = icmp slt i32 %48, %50
  br i1 %51, label %.lr.ph58, label %.loopexit, !llvm.loop !38

.loopexit.sink.split:                             ; preds = %.lr.ph58, %43, %34
  %52 = load i32, ptr %9, align 8, !tbaa !15
  %53 = and i32 %52, -2
  store i32 %53, ptr %9, align 8, !tbaa !15
  br label %.loopexit

.loopexit:                                        ; preds = %21, %43, %47, %.loopexit.sink.split, %36, %34, %5
  %54 = phi i1 [ true, %5 ], [ true, %34 ], [ false, %36 ], [ false, %.loopexit.sink.split ], [ true, %43 ], [ false, %47 ], [ true, %21 ]
  %.033 = phi i32 [ -1, %5 ], [ -1, %34 ], [ 0, %36 ], [ -2, %.loopexit.sink.split ], [ -1, %43 ], [ 0, %47 ], [ -1, %21 ]
  %spec.store.select = phi ptr [ @.str.2, %5 ], [ @.str.4, %34 ], [ @.str.6, %36 ], [ @.str.1, %.loopexit.sink.split ], [ @.str.5, %43 ], [ @.str.6, %47 ], [ @.str.3, %21 ]
  %.0 = phi ptr [ @.str.2, %5 ], [ @.str.4, %34 ], [ null, %36 ], [ @.str.1, %.loopexit.sink.split ], [ @.str.5, %43 ], [ null, %47 ], [ @.str.3, %21 ]
  %55 = load ptr, ptr %0, align 8, !tbaa !14
  %56 = getelementptr inbounds nuw i8, ptr %55, i64 40
  %57 = load ptr, ptr %56, align 8, !tbaa !39
  %.not46 = icmp eq ptr %57, null
  br i1 %.not46, label %61, label %58

58:                                               ; preds = %.loopexit
  %59 = tail call i32 %57(ptr noundef nonnull %0) #8
  %60 = icmp slt i32 %59, 1
  %brmerge = or i1 %54, %60
  %spec.store.select.mux = select i1 %60, ptr %spec.store.select, ptr %.0
  br i1 %brmerge, label %.thread, label %62

61:                                               ; preds = %.loopexit
  br i1 %54, label %.thread, label %62

.thread:                                          ; preds = %58, %61
  %.152 = phi ptr [ %.0, %61 ], [ %spec.store.select.mux, %58 ]
  tail call void @ERR_new() #8
  tail call void @ERR_set_debug(ptr noundef nonnull @.str, i32 noundef 528, ptr noundef nonnull @__func__.UI_process) #8
  tail call void (i32, i32, ptr, ...) @ERR_set_error(i32 noundef 40, i32 noundef 107, ptr noundef nonnull @.str.7, ptr noundef %.152) #8
  br label %62

62:                                               ; preds = %58, %.thread, %61
  %.350 = phi i32 [ -1, %.thread ], [ %.033, %61 ], [ %.033, %58 ]
  ret i32 %.350
}